; Function Attrs: nounwind uwtable
define void @lv_draw_buf_invalidate_cache(ptr noundef %0, ptr noundef %1) local_unnamed_addr #0 {
  %3 = alloca %struct.lv_area_t, align 4
  %.not = icmp eq ptr %0, null
  br i1 %.not, label %.preheader, label %4

.preheader:                                       ; preds = %2, %.preheader
  br label %.preheader

4:                                                ; preds = %2
  %5 = getelementptr inbounds nuw i8, ptr %0, i64 32
  %6 = load ptr, ptr %5, align 8, !tbaa !13
  %.not12 = icmp eq ptr %6, null
  br i1 %.not12, label %.preheader14, label %7

.preheader14:                                     ; preds = %4, %.preheader14
  br label %.preheader14

7:                                                ; preds = %4
  %8 = getelementptr inbounds nuw i8, ptr %6, i64 24
  %9 = load ptr, ptr %8, align 8, !tbaa !11
  %.not13 = icmp eq ptr %9, null
  br i1 %.not13, label %22, label %10

10:                                               ; preds = %7
  call void @llvm.lifetime.start.p0(i64 16, ptr nonnull %3) #9
  %11 = icmp eq ptr %1, null
  br i1 %11, label %12, label %20

12:                                               ; preds = %10
  %.val = load i64, ptr %0, align 4
  %13 = lshr i64 %.val, 32
  %14 = trunc nuw i64 %13 to i32
  %15 = and i32 %14, 65535
  %16 = add nsw i32 %15, -1
  %17 = lshr i64 %.val, 48
  %18 = trunc nuw nsw i64 %17 to i32
  %19 = add nsw i32 %18, -1
  call void @lv_area_set(ptr noundef nonnull %3, i32 noundef 0, i32 noundef 0, i32 noundef %16, i32 noundef %19) #9
  %.pre = load ptr, ptr %8, align 8, !tbaa !11
  br label %20

20:                                               ; preds = %12, %10
  %21 = phi ptr [ %.pre, %12 ], [ %9, %10 ]
  %.0 = phi ptr [ %3, %12 ], [ %1, %10 ]
  call void %21(ptr noundef nonnull %0, ptr noundef nonnull %.0) #9
  call void @llvm.lifetime.end.p0(i64 16, ptr nonnull %3) #9
  br label %22

22:                                               ; preds = %7, %20
  ret void
}